(dp1
S'output'
p2
S"<type 'exceptions.AttributeError'> 'NoneType' object has no attribute 'update_record'"
p3
sS'layer'
p4
S'/mnt/c/Users/Allan/Desktop/CMPS183/ProjectCheerSite/web2py/applications/start/controllers/api.py'
p5
sS'code'
p6
S'<code object <module> at 0x7f9caee878b0, file "/mnt/c/Users/Allan/Desktop/CMPS183/ProjectCheerSite/web2py/applications/start/controllers/api.py", line 1>'
p7
sS'snapshot'
p8
(dp9
sS'traceback'
p10
S'Traceback (most recent call last):\n  File "/mnt/c/Users/Allan/Desktop/CMPS183/ProjectCheerSite/web2py/gluon/restricted.py", line 219, in restricted\n    exec(ccode, environment)\n  File "/mnt/c/Users/Allan/Desktop/CMPS183/ProjectCheerSite/web2py/applications/start/controllers/api.py", line 135, in <module>\n  File "/mnt/c/Users/Allan/Desktop/CMPS183/ProjectCheerSite/web2py/gluon/globals.py", line 419, in <lambda>\n    self._caller = lambda f: f()\n  File "/mnt/c/Users/Allan/Desktop/CMPS183/ProjectCheerSite/web2py/gluon/tools.py", line 3982, in f\n    return action(*a, **b)\n  File "/mnt/c/Users/Allan/Desktop/CMPS183/ProjectCheerSite/web2py/applications/start/controllers/api.py", line 91, in toggle_favorite\n    q.update_record(favorited = not q.favorited)\nAttributeError: \'NoneType\' object has no attribute \'update_record\'\n'
p11
s.